; Function Attrs: nofree norecurse nosync nounwind memory(argmem: read) uwtable
define hidden noundef zeroext i1 @SDL_ChannelMapIsDefault(ptr noundef readonly captures(address_is_null) %0, i32 noundef %1) local_unnamed_addr #0 {
  %.not = icmp ne ptr %0, null
  %3 = icmp sgt i32 %1, 0
  %or.cond = and i1 %.not, %3
  br i1 %or.cond, label %.lr.ph.preheader, label %.thread

.lr.ph.preheader:                                 ; preds = %2
  %wide.trip.count = zext nneg i32 %1 to i64
  br label %.lr.ph

.lr.ph:                                           ; preds = %.lr.ph, %.lr.ph.preheader
  %indvars.iv = phi i64 [ 0, %.lr.ph.preheader ], [ %indvars.iv.next, %.lr.ph ]
  %4 = getelementptr inbounds nuw i32, ptr %0, i64 %indvars.iv
  %5 = load i32, ptr %4, align 4
  %6 = zext i32 %5 to i64
  %.not11 = icmp eq i64 %indvars.iv, %6
  %indvars.iv.next = add nuw nsw i64 %indvars.iv, 1
  %exitcond.not = icmp ne i64 %indvars.iv.next, %wide.trip.count
  %or.cond19.not = select i1 %.not11, i1 %exitcond.not, i1 false
  br i1 %or.cond19.not, label %.lr.ph, label %.thread, !llvm.loop !5

.thread:                                          ; preds = %.lr.ph, %2
  %.1 = phi i1 [ true, %2 ], [ %.not11, %.lr.ph ]
  ret i1 %.1
}